target datalayout = "e-m:e-p270:32:32-p271:32:32-p272:64:64-i64:64-i128:128-f80:128-n8:16:32:64-S128"
target triple = "x86_64-pc-linux-gnu"

%struct.Vec_Int_t_ = type { i32, i32, ptr }
%struct.sat_solver_t = type { i32, i32, i32, i32, %struct.Sat_Mem_t_, i32, i32, ptr, ptr, i32, i32, i32, i32, i32, i64, i64, i64, ptr, ptr, i32, i32, %struct.veci_t, ptr, i32, ptr, ptr, ptr, ptr, ptr, ptr, ptr, ptr, %struct.veci_t, %struct.veci_t, %struct.veci_t, %struct.veci_t, ptr, %struct.veci_t, i32, i32, i32, double, double, i32, i32, i32, %struct.stats_t, i32, i32, i32, i32, i32, i64, i64, i64, %struct.veci_t, ptr, i32, i32, i32, %struct.veci_t, %struct.veci_t, i32, i32, i32, ptr, ptr, i32, ptr, i32, i32, %struct.veci_t, %struct.veci_t, %struct.veci_t, ptr, ptr, i32, ptr }
%struct.Sat_Mem_t_ = type { [2 x i32], [2 x i32], [2 x i32], [2 x i32], i32, i32, i32, i32, ptr }
%struct.stats_t = type { i32, i32, i32, i64, i64, i64, i64, i64, i64, i64 }
%struct.veci_t = type { i32, i32, ptr }

; Function Attrs: inlinehint nounwind uwtable
define internal i32 @Abc_TtGetBit(ptr noundef %0, i32 noundef %1) #2 {
  %3 = alloca ptr, align 8
  %4 = alloca i32, align 4
  store ptr %0, ptr %3, align 8, !tbaa !75
  store i32 %1, ptr %4, align 4, !tbaa !12
  %5 = load ptr, ptr %3, align 8, !tbaa !75
  %6 = load i32, ptr %4, align 4, !tbaa !12
  %7 = ashr i32 %6, 6
  %8 = sext i32 %7 to i64
  %9 = getelementptr inbounds i64, ptr %5, i64 %8
  %10 = load i64, ptr %9, align 8, !tbaa !42
  %11 = load i32, ptr %4, align 4, !tbaa !12
  %12 = and i32 %11, 63
  %13 = zext i32 %12 to i64
  %14 = lshr i64 %10, %13
  %15 = trunc i64 %14 to i32
  %16 = and i32 %15, 1
  ret i32 %16
}

; Function Attrs: inlinehint nounwind uwtable
define internal void @Abc_TtXorBit(ptr noundef %0, i32 noundef %1) #2 {
  %3 = alloca ptr, align 8
  %4 = alloca i32, align 4
  store ptr %0, ptr %3, align 8, !tbaa !75
  store i32 %1, ptr %4, align 4, !tbaa !12
  %5 = load i32, ptr %4, align 4, !tbaa !12
  %6 = and i32 %5, 63
  %7 = zext i32 %6 to i64
  %8 = shl i64 1, %7
  %9 = load ptr, ptr %3, align 8, !tbaa !75
  %10 = load i32, ptr %4, align 4, !tbaa !12
  %11 = ashr i32 %10, 6
  %12 = sext i32 %11 to i64
  %13 = getelementptr inbounds i64, ptr %9, i64 %12
  %14 = load i64, ptr %13, align 8, !tbaa !42
  %15 = xor i64 %14, %8
  store i64 %15, ptr %13, align 8, !tbaa !42
  ret void
}

; Function Attrs: inlinehint nounwind uwtable
define internal i32 @sat_solver_var_value(ptr noundef %0, i32 noundef %1) #2 {
  %3 = alloca ptr, align 8
  %4 = alloca i32, align 4
  store ptr %0, ptr %3, align 8, !tbaa !3
  store i32 %1, ptr %4, align 4, !tbaa !12
  %5 = load ptr, ptr %3, align 8, !tbaa !3
  %6 = getelementptr inbounds nuw %struct.sat_solver_t, ptr %5, i32 0, i32 36
  %7 = load ptr, ptr %6, align 8, !tbaa !49
  %8 = load i32, ptr %4, align 4, !tbaa !12
  %9 = sext i32 %8 to i64
  %10 = getelementptr inbounds i32, ptr %7, i64 %9
  %11 = load i32, ptr %10, align 4, !tbaa !12
  %12 = icmp eq i32 %11, 1
  %13 = zext i1 %12 to i32
  ret i32 %13
}

; Function Attrs: inlinehint nounwind uwtable
define internal i32 @Vec_IntEntry(ptr noundef %0, i32 noundef %1) #2 {
  %3 = alloca ptr, align 8
  %4 = alloca i32, align 4
  store ptr %0, ptr %3, align 8, !tbaa !10
  store i32 %1, ptr %4, align 4, !tbaa !12
  %5 = load ptr, ptr %3, align 8, !tbaa !10
  %6 = getelementptr inbounds nuw %struct.Vec_Int_t_, ptr %5, i32 0, i32 2
  %7 = load ptr, ptr %6, align 8, !tbaa !24
  %8 = load i32, ptr %4, align 4, !tbaa !12
  %9 = sext i32 %8 to i64
  %10 = getelementptr inbounds i32, ptr %7, i64 %9
  %11 = load i32, ptr %10, align 4, !tbaa !12
  ret i32 %11
}

; Function Attrs: inlinehint nounwind uwtable
define internal i32 @Vec_IntSize(ptr noundef %0) #2 {
  %2 = alloca ptr, align 8
  store ptr %0, ptr %2, align 8, !tbaa !10
  %3 = load ptr, ptr %2, align 8, !tbaa !10
  %4 = getelementptr inbounds nuw %struct.Vec_Int_t_, ptr %3, i32 0, i32 1
  %5 = load i32, ptr %4, align 4, !tbaa !21
  ret i32 %5
}

; Function Attrs: inlinehint nounwind uwtable
define internal i32 @Abc_Var2Lit(i32 noundef %0, i32 noundef %1) #2 {
  %3 = alloca i32, align 4
  %4 = alloca i32, align 4
  store i32 %0, ptr %3, align 4, !tbaa !12
  store i32 %1, ptr %4, align 4, !tbaa !12
  %5 = load i32, ptr %3, align 4, !tbaa !12
  %6 = load i32, ptr %3, align 4, !tbaa !12
  %7 = add nsw i32 %5, %6
  %8 = load i32, ptr %4, align 4, !tbaa !12
  %9 = add nsw i32 %7, %8
  ret i32 %9
}

; Function Attrs: nounwind uwtable
define internal void @sat_solver_random_polarity(ptr noundef %0) #0 {
  %2 = alloca ptr, align 8
  %3 = alloca i32, align 4
  %4 = alloca i32, align 4
  %5 = alloca i64, align 8
  store ptr %0, ptr %2, align 8, !tbaa !3
  call void @llvm.lifetime.start.p0(i64 4, ptr %3) #8
  call void @llvm.lifetime.start.p0(i64 4, ptr %4) #8
  store i32 0, ptr %3, align 4, !tbaa !12
  br label %6

6:                                                ; preds = %45, %1
  %7 = load i32, ptr %3, align 4, !tbaa !12
  %8 = load ptr, ptr %2, align 8, !tbaa !3
  %9 = getelementptr inbounds nuw %struct.sat_solver_t, ptr %8, i32 0, i32 0
  %10 = load i32, ptr %9, align 8, !tbaa !78
  %11 = icmp slt i32 %7, %10
  br i1 %11, label %12, label %48

12:                                               ; preds = %6
  call void @llvm.lifetime.start.p0(i64 8, ptr %5) #8
  %13 = call i64 @Gia_ManRandomW(i32 noundef 0)
  store i64 %13, ptr %5, align 8, !tbaa !42
  store i32 0, ptr %4, align 4, !tbaa !12
  br label %14

14:                                               ; preds = %41, %12
  %15 = load i32, ptr %4, align 4, !tbaa !12
  %16 = icmp slt i32 %15, 64
  br i1 %16, label %17, label %26

17:                                               ; preds = %14
  %18 = load i32, ptr %3, align 4, !tbaa !12
  %19 = shl i32 %18, 6
  %20 = load i32, ptr %4, align 4, !tbaa !12
  %21 = add nsw i32 %19, %20
  %22 = load ptr, ptr %2, align 8, !tbaa !3
  %23 = getelementptr inbounds nuw %struct.sat_solver_t, ptr %22, i32 0, i32 0
  %24 = load i32, ptr %23, align 8, !tbaa !78
  %25 = icmp slt i32 %21, %24
  br label %26

26:                                               ; preds = %17, %14
  %27 = phi i1 [ false, %14 ], [ %25, %17 ]
  br i1 %27, label %28, label %44

28:                                               ; preds = %26
  %29 = load i32, ptr %4, align 4, !tbaa !12
  %30 = call i32 @Abc_TtGetBit(ptr noundef %5, i32 noundef %29)
  %31 = trunc i32 %30 to i8
  %32 = load ptr, ptr %2, align 8, !tbaa !3
  %33 = getelementptr inbounds nuw %struct.sat_solver_t, ptr %32, i32 0, i32 26
  %34 = load ptr, ptr %33, align 8, !tbaa !79
  %35 = load i32, ptr %3, align 4, !tbaa !12
  %36 = shl i32 %35, 6
  %37 = load i32, ptr %4, align 4, !tbaa !12
  %38 = add nsw i32 %36, %37
  %39 = sext i32 %38 to i64
  %40 = getelementptr inbounds i8, ptr %34, i64 %39
  store i8 %31, ptr %40, align 1, !tbaa !68
  br label %41

41:                                               ; preds = %28
  %42 = load i32, ptr %4, align 4, !tbaa !12
  %43 = add nsw i32 %42, 1
  store i32 %43, ptr %4, align 4, !tbaa !12
  br label %14, !llvm.loop !80

44:                                               ; preds = %26
  call void @llvm.lifetime.end.p0(i64 8, ptr %5) #8
  br label %45

45:                                               ; preds = %44
  %46 = load i32, ptr %3, align 4, !tbaa !12
  %47 = add nsw i32 %46, 64
  store i32 %47, ptr %3, align 4, !tbaa !12
  br label %6, !llvm.loop !81

48:                                               ; preds = %6
  call void @llvm.lifetime.end.p0(i64 4, ptr %4) #8
  call void @llvm.lifetime.end.p0(i64 4, ptr %3) #8
  ret void
}

; Function Attrs: nounwind uwtable
define i32 @Sbd_ManCollectConstantsNew(ptr noundef %0, ptr noundef %1, i32 noundef %2, i32 noundef %3, ptr noundef %4, ptr noundef %5) #0 {
  %7 = alloca i32, align 4
  %8 = alloca ptr, align 8
  %9 = alloca ptr, align 8
  %10 = alloca i32, align 4
  %11 = alloca i32, align 4
  %12 = alloca ptr, align 8
  %13 = alloca ptr, align 8
  %14 = alloca i32, align 4
  %15 = alloca i32, align 4
  %16 = alloca i32, align 4
  %17 = alloca i32, align 4
  %18 = alloca i32, align 4
  %19 = alloca i32, align 4
  %20 = alloca i32, align 4
  %21 = alloca [2 x ptr], align 16
  %22 = alloca i32, align 4
  store ptr %0, ptr %8, align 8, !tbaa !3
  store ptr %1, ptr %9, align 8, !tbaa !10
  store i32 %2, ptr %10, align 4, !tbaa !12
  store i32 %3, ptr %11, align 4, !tbaa !12
  store ptr %4, ptr %12, align 8, !tbaa !75
  store ptr %5, ptr %13, align 8, !tbaa !75
  call void @llvm.lifetime.start.p0(i64 4, ptr %14) #8
  store i32 0, ptr %14, align 4, !tbaa !12
  call void @llvm.lifetime.start.p0(i64 4, ptr %15) #8
  call void @llvm.lifetime.start.p0(i64 4, ptr %16) #8
  call void @llvm.lifetime.start.p0(i64 4, ptr %17) #8
  call void @llvm.lifetime.start.p0(i64 4, ptr %18) #8
  call void @llvm.lifetime.start.p0(i64 4, ptr %19) #8
  call void @llvm.lifetime.start.p0(i64 4, ptr %20) #8
  call void @llvm.lifetime.start.p0(i64 16, ptr %21) #8
  %23 = load ptr, ptr %12, align 8, !tbaa !75
  store ptr %23, ptr %21, align 8, !tbaa !75
  %24 = getelementptr inbounds ptr, ptr %21, i64 1
  %25 = load ptr, ptr %13, align 8, !tbaa !75
  store ptr %25, ptr %24, align 8, !tbaa !75
  store i32 0, ptr %15, align 4, !tbaa !12
  br label %26

26:                                               ; preds = %103, %6
  %27 = load i32, ptr %15, align 4, !tbaa !12
  %28 = icmp slt i32 %27, 2
  br i1 %28, label %29, label %106

29:                                               ; preds = %26
  store i32 0, ptr %16, align 4, !tbaa !12
  br label %30

30:                                               ; preds = %99, %29
  %31 = load i32, ptr %16, align 4, !tbaa !12
  %32 = load i32, ptr %10, align 4, !tbaa !12
  %33 = icmp slt i32 %31, %32
  br i1 %33, label %34, label %102

34:                                               ; preds = %30
  %35 = load ptr, ptr %8, align 8, !tbaa !3
  call void @sat_solver_random_polarity(ptr noundef %35)
  %36 = load i32, ptr %11, align 4, !tbaa !12
  %37 = load i32, ptr %15, align 4, !tbaa !12
  %38 = call i32 @Abc_Var2Lit(i32 noundef %36, i32 noundef %37)
  store i32 %38, ptr %19, align 4, !tbaa !12
  %39 = load ptr, ptr %8, align 8, !tbaa !3
  %40 = getelementptr inbounds i32, ptr %19, i64 1
  %41 = load i32, ptr %14, align 4, !tbaa !12
  %42 = sext i32 %41 to i64
  %43 = call i32 @sat_solver_solve(ptr noundef %39, ptr noundef %19, ptr noundef %40, i64 noundef %42, i64 noundef 0, i64 noundef 0, i64 noundef 0)
  store i32 %43, ptr %18, align 4, !tbaa !12
  %44 = load i32, ptr %18, align 4, !tbaa !12
  %45 = icmp eq i32 %44, 0
  br i1 %45, label %46, label %47

46:                                               ; preds = %34
  store i32 -2, ptr %7, align 4
  store i32 1, ptr %22, align 4
  br label %107

47:                                               ; preds = %34
  %48 = load i32, ptr %18, align 4, !tbaa !12
  %49 = icmp eq i32 %48, -1
  br i1 %49, label %50, label %52

50:                                               ; preds = %47
  %51 = load i32, ptr %15, align 4, !tbaa !12
  store i32 %51, ptr %7, align 4
  store i32 1, ptr %22, align 4
  br label %107

52:                                               ; preds = %47
  %53 = load i32, ptr %15, align 4, !tbaa !12
  %54 = icmp ne i32 %53, 0
  %55 = xor i1 %54, true
  %56 = zext i1 %55 to i32
  %57 = sext i32 %56 to i64
  %58 = load ptr, ptr %9, align 8, !tbaa !10
  %59 = call i32 @Vec_IntSize(ptr noundef %58)
  %60 = zext i32 %59 to i64
  %61 = shl i64 %57, %60
  %62 = load i32, ptr %15, align 4, !tbaa !12
  %63 = sext i32 %62 to i64
  %64 = getelementptr inbounds [2 x ptr], ptr %21, i64 0, i64 %63
  %65 = load ptr, ptr %64, align 8, !tbaa !75
  %66 = load i32, ptr %16, align 4, !tbaa !12
  %67 = sext i32 %66 to i64
  %68 = getelementptr inbounds i64, ptr %65, i64 %67
  store i64 %61, ptr %68, align 8, !tbaa !42
  store i32 0, ptr %17, align 4, !tbaa !12
  br label %69

69:                                               ; preds = %95, %52
  %70 = load i32, ptr %17, align 4, !tbaa !12
  %71 = load ptr, ptr %9, align 8, !tbaa !10
  %72 = call i32 @Vec_IntSize(ptr noundef %71)
  %73 = icmp slt i32 %70, %72
  br i1 %73, label %74, label %78

74:                                               ; preds = %69
  %75 = load ptr, ptr %9, align 8, !tbaa !10
  %76 = load i32, ptr %17, align 4, !tbaa !12
  %77 = call i32 @Vec_IntEntry(ptr noundef %75, i32 noundef %76)
  store i32 %77, ptr %20, align 4, !tbaa !12
  br label %78

78:                                               ; preds = %74, %69
  %79 = phi i1 [ false, %69 ], [ true, %74 ]
  br i1 %79, label %80, label %98

80:                                               ; preds = %78
  %81 = load ptr, ptr %8, align 8, !tbaa !3
  %82 = load i32, ptr %20, align 4, !tbaa !12
  %83 = call i32 @sat_solver_var_value(ptr noundef %81, i32 noundef %82)
  %84 = icmp ne i32 %83, 0
  br i1 %84, label %85, label %94

85:                                               ; preds = %80
  %86 = load i32, ptr %15, align 4, !tbaa !12
  %87 = sext i32 %86 to i64
  %88 = getelementptr inbounds [2 x ptr], ptr %21, i64 0, i64 %87
  %89 = load ptr, ptr %88, align 8, !tbaa !75
  %90 = load i32, ptr %16, align 4, !tbaa !12
  %91 = sext i32 %90 to i64
  %92 = getelementptr inbounds i64, ptr %89, i64 %91
  %93 = load i32, ptr %17, align 4, !tbaa !12
  call void @Abc_TtXorBit(ptr noundef %92, i32 noundef %93)
  br label %94

94:                                               ; preds = %85, %80
  br label %95

95:                                               ; preds = %94
  %96 = load i32, ptr %17, align 4, !tbaa !12
  %97 = add nsw i32 %96, 1
  store i32 %97, ptr %17, align 4, !tbaa !12
  br label %69, !llvm.loop !82

98:                                               ; preds = %78
  br label %99

99:                                               ; preds = %98
  %100 = load i32, ptr %16, align 4, !tbaa !12
  %101 = add nsw i32 %100, 1
  store i32 %101, ptr %16, align 4, !tbaa !12
  br label %30, !llvm.loop !83

102:                                              ; preds = %30
  br label %103

103:                                              ; preds = %102
  %104 = load i32, ptr %15, align 4, !tbaa !12
  %105 = add nsw i32 %104, 1
  store i32 %105, ptr %15, align 4, !tbaa !12
  br label %26, !llvm.loop !84

106:                                              ; preds = %26
  store i32 -1, ptr %7, align 4
  store i32 1, ptr %22, align 4
  br label %107

107:                                              ; preds = %106, %50, %46
  call void @llvm.lifetime.end.p0(i64 16, ptr %21) #8
  call void @llvm.lifetime.end.p0(i64 4, ptr %20) #8
  call void @llvm.lifetime.end.p0(i64 4, ptr %19) #8
  call void @llvm.lifetime.end.p0(i64 4, ptr %18) #8
  call void @llvm.lifetime.end.p0(i64 4, ptr %17) #8
  call void @llvm.lifetime.end.p0(i64 4, ptr %16) #8
  call void @llvm.lifetime.end.p0(i64 4, ptr %15) #8
  call void @llvm.lifetime.end.p0(i64 4, ptr %14) #8
  %108 = load i32, ptr %7, align 4
  ret i32 %108
}