; Function Attrs: nounwind uwtable
define range(i32 -2, 2) i32 @Sbd_ManCollectConstantsNew(ptr noundef %0, ptr noundef readonly captures(none) %1, i32 noundef %2, i32 noundef %3, ptr noundef %4, ptr noundef %5) local_unnamed_addr #0 {
  %7 = alloca i32, align 4
  %.sroa.0 = alloca ptr, align 16
  %.sroa.4 = alloca ptr, align 8
  call void @llvm.lifetime.start.p0(i64 4, ptr nonnull %7) #12
  call void @llvm.lifetime.start.p0(i64 8, ptr nonnull %.sroa.0)
  call void @llvm.lifetime.start.p0(i64 8, ptr nonnull %.sroa.4)
  store ptr %4, ptr %.sroa.0, align 16, !tbaa !68
  store ptr %5, ptr %.sroa.4, align 8, !tbaa !68
  %8 = icmp sgt i32 %2, 0
  %9 = getelementptr inbounds nuw i8, ptr %0, i64 216
  %10 = getelementptr inbounds nuw i8, ptr %7, i64 4
  %11 = getelementptr i8, ptr %1, i64 4
  %12 = getelementptr i8, ptr %1, i64 8
  %13 = getelementptr i8, ptr %0, i64 328
  br i1 %8, label %.preheader.us.preheader, label %.split45.us

.preheader.us.preheader:                          ; preds = %6
  %14 = shl nsw i32 %3, 1
  %wide.trip.count55 = zext nneg i32 %2 to i64
  br label %.preheader.us

.preheader.us:                                    ; preds = %.preheader.us.preheader, %._crit_edge.us
  %15 = phi i1 [ true, %.preheader.us.preheader ], [ false, %._crit_edge.us ]
  %indvars.iv57.sroa.phi = phi ptr [ %.sroa.0, %.preheader.us.preheader ], [ %.sroa.4, %._crit_edge.us ]
  %indvars.iv57 = phi i64 [ 0, %.preheader.us.preheader ], [ 1, %._crit_edge.us ]
  %16 = xor i64 %indvars.iv57, 1
  %17 = trunc nuw nsw i64 %indvars.iv57 to i32
  %18 = or disjoint i32 %14, %17
  br label %19

19:                                               ; preds = %.preheader.us, %.critedge.us
  %indvars.iv52 = phi i64 [ 0, %.preheader.us ], [ %indvars.iv.next53, %.critedge.us ]
  %20 = load i32, ptr %0, align 8, !tbaa !63
  %21 = icmp sgt i32 %20, 0
  br i1 %21, label %.lr.ph.i.us, label %sat_solver_random_polarity.exit.us

.lr.ph.i.us:                                      ; preds = %19, %.critedge.i.us
  %indvars.iv16.i.us = phi i64 [ %indvars.iv.next17.i.us, %.critedge.i.us ], [ 0, %19 ]
  %22 = call i64 @Gia_ManRandomW(i32 noundef 0) #12
  %23 = trunc nuw nsw i64 %indvars.iv16.i.us to i32
  %24 = shl i32 %23, 6
  %25 = sext i32 %24 to i64
  br label %26

26:                                               ; preds = %31, %.lr.ph.i.us
  %indvars.iv.i.us = phi i64 [ 0, %.lr.ph.i.us ], [ %indvars.iv.next.i.us, %31 ]
  %27 = add nuw nsw i64 %indvars.iv.i.us, %25
  %28 = load i32, ptr %0, align 8, !tbaa !63
  %29 = sext i32 %28 to i64
  %30 = icmp slt i64 %27, %29
  br i1 %30, label %31, label %.critedge.i.us

31:                                               ; preds = %26
  %32 = lshr i64 %22, %indvars.iv.i.us
  %33 = trunc i64 %32 to i8
  %34 = and i8 %33, 1
  %35 = load ptr, ptr %9, align 8, !tbaa !64
  %36 = getelementptr inbounds i8, ptr %35, i64 %27
  store i8 %34, ptr %36, align 1, !tbaa !60
  %indvars.iv.next.i.us = add nuw nsw i64 %indvars.iv.i.us, 1
  %exitcond.not.i.us = icmp eq i64 %indvars.iv.next.i.us, 64
  br i1 %exitcond.not.i.us, label %..critedge_crit_edge.i.us, label %26, !llvm.loop !65

..critedge_crit_edge.i.us:                        ; preds = %31
  %.pre.i.us = load i32, ptr %0, align 8, !tbaa !63
  %.pre19.i.us = sext i32 %.pre.i.us to i64
  br label %.critedge.i.us

.critedge.i.us:                                   ; preds = %26, %..critedge_crit_edge.i.us
  %.pre-phi.i.us = phi i64 [ %.pre19.i.us, %..critedge_crit_edge.i.us ], [ %29, %26 ]
  %indvars.iv.next17.i.us = add nuw nsw i64 %indvars.iv16.i.us, 64
  %37 = icmp slt i64 %indvars.iv.next17.i.us, %.pre-phi.i.us
  br i1 %37, label %.lr.ph.i.us, label %sat_solver_random_polarity.exit.us, !llvm.loop !66

sat_solver_random_polarity.exit.us:               ; preds = %.critedge.i.us, %19
  store i32 %18, ptr %7, align 4, !tbaa !3
  %38 = call i32 @sat_solver_solve(ptr noundef nonnull %0, ptr noundef nonnull %7, ptr noundef nonnull %10, i64 noundef 0, i64 noundef 0, i64 noundef 0, i64 noundef 0) #12
  switch i32 %38, label %39 [
    i32 0, label %.split45.us
    i32 -1, label %.split45.us.loopexit
  ]

39:                                               ; preds = %sat_solver_random_polarity.exit.us
  %.val33.us = load i32, ptr %11, align 4, !tbaa !7
  %40 = zext i32 %.val33.us to i64
  %41 = shl nuw i64 %16, %40
  %42 = load ptr, ptr %indvars.iv57.sroa.phi, align 8, !tbaa !68
  %43 = getelementptr inbounds nuw i64, ptr %42, i64 %indvars.iv52
  store i64 %41, ptr %43, align 8, !tbaa !53
  %44 = icmp sgt i32 %.val33.us, 0
  br i1 %44, label %.lr.ph.us, label %.critedge.us

.critedge.us:                                     ; preds = %59, %39
  %indvars.iv.next53 = add nuw nsw i64 %indvars.iv52, 1
  %exitcond56.not = icmp eq i64 %indvars.iv.next53, %wide.trip.count55
  br i1 %exitcond56.not, label %._crit_edge.us, label %19, !llvm.loop !70

45:                                               ; preds = %.lr.ph.us, %59
  %indvars.iv = phi i64 [ 0, %.lr.ph.us ], [ %indvars.iv.next, %59 ]
  %46 = getelementptr inbounds nuw i32, ptr %.val34.us, i64 %indvars.iv
  %47 = load i32, ptr %46, align 4, !tbaa !3
  %48 = sext i32 %47 to i64
  %49 = getelementptr inbounds i32, ptr %.val35.us, i64 %48
  %50 = load i32, ptr %49, align 4, !tbaa !3
  %.not.us = icmp eq i32 %50, 1
  br i1 %.not.us, label %51, label %59

51:                                               ; preds = %45
  %52 = and i64 %indvars.iv, 63
  %53 = shl nuw i64 1, %52
  %54 = lshr i64 %indvars.iv, 6
  %55 = and i64 %54, 67108863
  %56 = getelementptr inbounds nuw i64, ptr %43, i64 %55
  %57 = load i64, ptr %56, align 8, !tbaa !53
  %58 = xor i64 %57, %53
  store i64 %58, ptr %56, align 8, !tbaa !53
  br label %59

59:                                               ; preds = %51, %45
  %indvars.iv.next = add nuw nsw i64 %indvars.iv, 1
  %exitcond.not = icmp eq i64 %indvars.iv.next, %40
  br i1 %exitcond.not, label %.critedge.us, label %45, !llvm.loop !71

.lr.ph.us:                                        ; preds = %39
  %.val34.us = load ptr, ptr %12, align 8, !tbaa !11
  %.val35.us = load ptr, ptr %13, align 8, !tbaa !36
  br label %45

._crit_edge.us:                                   ; preds = %.critedge.us
  br i1 %15, label %.preheader.us, label %.split45.us, !llvm.loop !72

.split45.us.loopexit:                             ; preds = %sat_solver_random_polarity.exit.us
  %60 = trunc nuw nsw i64 %indvars.iv57 to i32
  br label %.split45.us

.split45.us:                                      ; preds = %._crit_edge.us, %sat_solver_random_polarity.exit.us, %6, %.split45.us.loopexit
  %.0 = phi i32 [ %60, %.split45.us.loopexit ], [ -1, %6 ], [ -2, %sat_solver_random_polarity.exit.us ], [ -1, %._crit_edge.us ]
  call void @llvm.lifetime.end.p0(i64 8, ptr nonnull %.sroa.0)
  call void @llvm.lifetime.end.p0(i64 8, ptr nonnull %.sroa.4)
  call void @llvm.lifetime.end.p0(i64 4, ptr nonnull %7) #12
  ret i32 %.0
}